target datalayout = "e-m:e-p270:32:32-p271:32:32-p272:64:64-i64:64-i128:128-f80:128-n8:16:32:64-S128"
target triple = "x86_64-pc-linux-gnu"

%struct.exr_attr_float_vector_t = type { i32, i32, ptr }
%struct._priv_exr_context_t = type { i8, i8, i8, i8, i8, i8, i8, i8, %struct.exr_attr_string_t, %struct.exr_attr_string_t, ptr, ptr, ptr, ptr, ptr, ptr, ptr, ptr, i32, i32, i32, i32, i32, float, ptr, ptr, ptr, i64, ptr, ptr, i64, i32, i32, i32, i32, %struct._priv_exr_part_t, ptr, ptr, %struct.exr_attribute_list, %union.pthread_mutex_t, i8, i8, [2 x i8], i32 }
%struct.exr_attr_string_t = type { i32, i32, ptr }
%struct._priv_exr_part_t = type { i32, i32, %struct.exr_attribute_list, ptr, ptr, ptr, ptr, ptr, ptr, ptr, ptr, ptr, ptr, ptr, ptr, ptr, ptr, %struct.exr_attr_box2i_t, %struct.exr_attr_box2i_t, i32, i32, i32, float, i32, i32, ptr, ptr, ptr, ptr, i64, i16, i16, i32, i64, i64 }
%struct.exr_attr_box2i_t = type { %struct.exr_attr_v2i_t, %struct.exr_attr_v2i_t }
%struct.exr_attr_v2i_t = type { i32, i32 }
%struct.exr_attribute_list = type { i32, i32, ptr, ptr }
%union.pthread_mutex_t = type { %struct.__pthread_mutex_s }
%struct.__pthread_mutex_s = type { i32, i32, i32, i32, i32, i16, i16, %struct.__pthread_internal_list }
%struct.__pthread_internal_list = type { ptr, ptr }

@.str = private unnamed_addr constant [55 x i8] c"Invalid reference to float vector object to initialize\00", align 1
@.str.1 = private unnamed_addr constant [70 x i8] c"Received request to allocate negative sized float vector (%d entries)\00", align 1
@.str.2 = private unnamed_addr constant [53 x i8] c"Invalid too large size for float vector (%d entries)\00", align 1

; Function Attrs: nounwind uwtable
define hidden i32 @exr_attr_float_vector_init(ptr noundef %0, ptr noundef %1, i32 noundef %2) #0 {
  %4 = alloca i32, align 4
  %5 = alloca ptr, align 8
  %6 = alloca ptr, align 8
  %7 = alloca i32, align 4
  %8 = alloca %struct.exr_attr_float_vector_t, align 8
  %9 = alloca i64, align 8
  %10 = alloca i32, align 4
  store ptr %0, ptr %5, align 8, !tbaa !3
  store ptr %1, ptr %6, align 8, !tbaa !8
  store i32 %2, ptr %7, align 4, !tbaa !9
  call void @llvm.lifetime.start.p0(i64 16, ptr %8) #4
  call void @llvm.memset.p0.i64(ptr align 8 %8, i8 0, i64 16, i1 false)
  call void @llvm.lifetime.start.p0(i64 8, ptr %9) #4
  %11 = load i32, ptr %7, align 4, !tbaa !9
  %12 = sext i32 %11 to i64
  %13 = mul i64 %12, 4
  store i64 %13, ptr %9, align 8, !tbaa !11
  %14 = load ptr, ptr %5, align 8, !tbaa !3
  %15 = icmp ne ptr %14, null
  br i1 %15, label %17, label %16

16:                                               ; preds = %3
  store i32 2, ptr %4, align 4
  store i32 1, ptr %10, align 4
  br label %77

17:                                               ; preds = %3
  %18 = load ptr, ptr %6, align 8, !tbaa !8
  %19 = icmp ne ptr %18, null
  br i1 %19, label %26, label %20

20:                                               ; preds = %17
  %21 = load ptr, ptr %5, align 8, !tbaa !3
  %22 = getelementptr inbounds nuw %struct._priv_exr_context_t, ptr %21, i32 0, i32 13
  %23 = load ptr, ptr %22, align 8, !tbaa !13
  %24 = load ptr, ptr %5, align 8, !tbaa !3
  %25 = call i32 %23(ptr noundef %24, i32 noundef 3, ptr noundef @.str)
  store i32 %25, ptr %4, align 4
  store i32 1, ptr %10, align 4
  br label %77

26:                                               ; preds = %17
  %27 = load ptr, ptr %6, align 8, !tbaa !8
  call void @llvm.memcpy.p0.p0.i64(ptr align 8 %27, ptr align 8 %8, i64 16, i1 false), !tbaa.struct !27
  %28 = load i32, ptr %7, align 4, !tbaa !9
  %29 = icmp slt i32 %28, 0
  br i1 %29, label %30, label %37

30:                                               ; preds = %26
  %31 = load ptr, ptr %5, align 8, !tbaa !3
  %32 = getelementptr inbounds nuw %struct._priv_exr_context_t, ptr %31, i32 0, i32 14
  %33 = load ptr, ptr %32, align 8, !tbaa !30
  %34 = load ptr, ptr %5, align 8, !tbaa !3
  %35 = load i32, ptr %7, align 4, !tbaa !9
  %36 = call i32 (ptr, i32, ptr, ...) %33(ptr noundef %34, i32 noundef 3, ptr noundef @.str.1, i32 noundef %35)
  store i32 %36, ptr %4, align 4
  store i32 1, ptr %10, align 4
  br label %77

37:                                               ; preds = %26
  %38 = load i64, ptr %9, align 8, !tbaa !11
  %39 = icmp ugt i64 %38, 2147483647
  br i1 %39, label %40, label %47

40:                                               ; preds = %37
  %41 = load ptr, ptr %5, align 8, !tbaa !3
  %42 = getelementptr inbounds nuw %struct._priv_exr_context_t, ptr %41, i32 0, i32 14
  %43 = load ptr, ptr %42, align 8, !tbaa !30
  %44 = load ptr, ptr %5, align 8, !tbaa !3
  %45 = load i32, ptr %7, align 4, !tbaa !9
  %46 = call i32 (ptr, i32, ptr, ...) %43(ptr noundef %44, i32 noundef 3, ptr noundef @.str.2, i32 noundef %45)
  store i32 %46, ptr %4, align 4
  store i32 1, ptr %10, align 4
  br label %77

47:                                               ; preds = %37
  %48 = load i64, ptr %9, align 8, !tbaa !11
  %49 = icmp ugt i64 %48, 0
  br i1 %49, label %50, label %75

50:                                               ; preds = %47
  %51 = load ptr, ptr %5, align 8, !tbaa !3
  %52 = getelementptr inbounds nuw %struct._priv_exr_context_t, ptr %51, i32 0, i32 16
  %53 = load ptr, ptr %52, align 8, !tbaa !31
  %54 = load i64, ptr %9, align 8, !tbaa !11
  %55 = call ptr %53(i64 noundef %54)
  %56 = load ptr, ptr %6, align 8, !tbaa !8
  %57 = getelementptr inbounds nuw %struct.exr_attr_float_vector_t, ptr %56, i32 0, i32 2
  store ptr %55, ptr %57, align 8, !tbaa !32
  %58 = load ptr, ptr %6, align 8, !tbaa !8
  %59 = getelementptr inbounds nuw %struct.exr_attr_float_vector_t, ptr %58, i32 0, i32 2
  %60 = load ptr, ptr %59, align 8, !tbaa !32
  %61 = icmp eq ptr %60, null
  br i1 %61, label %62, label %68

62:                                               ; preds = %50
  %63 = load ptr, ptr %5, align 8, !tbaa !3
  %64 = getelementptr inbounds nuw %struct._priv_exr_context_t, ptr %63, i32 0, i32 12
  %65 = load ptr, ptr %64, align 8, !tbaa !34
  %66 = load ptr, ptr %5, align 8, !tbaa !3
  %67 = call i32 %65(ptr noundef %66, i32 noundef 1)
  store i32 %67, ptr %4, align 4
  store i32 1, ptr %10, align 4
  br label %77

68:                                               ; preds = %50
  %69 = load i32, ptr %7, align 4, !tbaa !9
  %70 = load ptr, ptr %6, align 8, !tbaa !8
  %71 = getelementptr inbounds nuw %struct.exr_attr_float_vector_t, ptr %70, i32 0, i32 0
  store i32 %69, ptr %71, align 8, !tbaa !35
  %72 = load i32, ptr %7, align 4, !tbaa !9
  %73 = load ptr, ptr %6, align 8, !tbaa !8
  %74 = getelementptr inbounds nuw %struct.exr_attr_float_vector_t, ptr %73, i32 0, i32 1
  store i32 %72, ptr %74, align 4, !tbaa !36
  br label %75

75:                                               ; preds = %68, %47
  br label %76

76:                                               ; preds = %75
  store i32 0, ptr %4, align 4
  store i32 1, ptr %10, align 4
  br label %77

77:                                               ; preds = %76, %62, %40, %30, %20, %16
  call void @llvm.lifetime.end.p0(i64 8, ptr %9) #4
  call void @llvm.lifetime.end.p0(i64 16, ptr %8) #4
  %78 = load i32, ptr %4, align 4
  ret i32 %78
}