; Function Attrs: nounwind uwtable
define hidden i32 @exr_attr_float_vector_init(ptr noundef %0, ptr noundef writeonly %1, i32 noundef %2) local_unnamed_addr #0 {
  %4 = sext i32 %2 to i64
  %5 = shl nsw i64 %4, 2
  %.not = icmp eq ptr %0, null
  br i1 %.not, label %36, label %6

6:                                                ; preds = %3
  %.not29 = icmp eq ptr %1, null
  br i1 %.not29, label %7, label %11

7:                                                ; preds = %6
  %8 = getelementptr inbounds nuw i8, ptr %0, i64 64
  %9 = load ptr, ptr %8, align 8, !tbaa !3
  %10 = tail call i32 %9(ptr noundef nonnull %0, i32 noundef 3, ptr noundef nonnull @.str) #3
  br label %36

11:                                               ; preds = %6
  tail call void @llvm.memset.p0.i64(ptr noundef nonnull align 8 dereferenceable(16) %1, i8 0, i64 16, i1 false)
  %12 = icmp slt i32 %2, 0
  br i1 %12, label %13, label %17

13:                                               ; preds = %11
  %14 = getelementptr inbounds nuw i8, ptr %0, i64 72
  %15 = load ptr, ptr %14, align 8, !tbaa !22
  %16 = tail call i32 (ptr, i32, ptr, ...) %15(ptr noundef nonnull %0, i32 noundef 3, ptr noundef nonnull @.str.1, i32 noundef %2) #3
  br label %36

17:                                               ; preds = %11
  %18 = icmp ugt i64 %5, 2147483647
  br i1 %18, label %19, label %23

19:                                               ; preds = %17
  %20 = getelementptr inbounds nuw i8, ptr %0, i64 72
  %21 = load ptr, ptr %20, align 8, !tbaa !22
  %22 = tail call i32 (ptr, i32, ptr, ...) %21(ptr noundef nonnull %0, i32 noundef 3, ptr noundef nonnull @.str.2, i32 noundef %2) #3
  br label %36

23:                                               ; preds = %17
  %.not30 = icmp eq i32 %2, 0
  br i1 %.not30, label %36, label %24

24:                                               ; preds = %23
  %25 = getelementptr inbounds nuw i8, ptr %0, i64 88
  %26 = load ptr, ptr %25, align 8, !tbaa !23
  %27 = tail call ptr %26(i64 noundef %5) #3
  %28 = getelementptr inbounds nuw i8, ptr %1, i64 8
  store ptr %27, ptr %28, align 8, !tbaa !24
  %29 = icmp eq ptr %27, null
  br i1 %29, label %30, label %34

30:                                               ; preds = %24
  %31 = getelementptr inbounds nuw i8, ptr %0, i64 56
  %32 = load ptr, ptr %31, align 8, !tbaa !27
  %33 = tail call i32 %32(ptr noundef nonnull %0, i32 noundef 1) #3
  br label %36

34:                                               ; preds = %24
  store i32 %2, ptr %1, align 8, !tbaa !28
  %35 = getelementptr inbounds nuw i8, ptr %1, i64 4
  store i32 %2, ptr %35, align 4, !tbaa !29
  br label %36

36:                                               ; preds = %34, %23, %3, %30, %19, %13, %7
  %.0 = phi i32 [ %16, %13 ], [ %22, %19 ], [ %33, %30 ], [ %10, %7 ], [ 2, %3 ], [ 0, %23 ], [ 0, %34 ]
  ret i32 %.0
}